; Function Attrs: mustprogress nofree norecurse nosync nounwind willreturn memory(write, argmem: readwrite, inaccessiblemem: none) uwtable
define void @_ZN6gmxapi8WorkflowC2EOSt3mapINSt7__cxx1112basic_stringIcSt11char_traitsIcESaIcEEESt10unique_ptrINS_17NodeSpecificationESt14default_deleteIS9_EESt4lessIS7_ESaISt4pairIKS7_SC_EEE(ptr noundef nonnull align 8 dereferenceable(48) %0, ptr noundef nonnull align 8 dereferenceable(48) %1) unnamed_addr #11 align 2 personality ptr @__gxx_personality_v0 {
  %3 = getelementptr inbounds i8, ptr %0, i64 8
  %4 = getelementptr inbounds i8, ptr %1, i64 16
  %5 = load ptr, ptr %4, align 8
  %.not.i.i.i.i = icmp eq ptr %5, null
  br i1 %.not.i.i.i.i, label %21, label %6

6:                                                ; preds = %2
  %7 = getelementptr inbounds i8, ptr %1, i64 8
  %8 = load i32, ptr %7, align 8
  store i32 %8, ptr %3, align 8
  %9 = load ptr, ptr %4, align 8
  %10 = getelementptr inbounds i8, ptr %0, i64 16
  store ptr %9, ptr %10, align 8
  %11 = getelementptr inbounds i8, ptr %1, i64 24
  %12 = load ptr, ptr %11, align 8
  %13 = getelementptr inbounds i8, ptr %0, i64 24
  store ptr %12, ptr %13, align 8
  %14 = getelementptr inbounds i8, ptr %1, i64 32
  %15 = load ptr, ptr %14, align 8
  %16 = getelementptr inbounds i8, ptr %0, i64 32
  store ptr %15, ptr %16, align 8
  %17 = getelementptr inbounds i8, ptr %9, i64 8
  store ptr %3, ptr %17, align 8
  %18 = getelementptr inbounds i8, ptr %1, i64 40
  %19 = load i64, ptr %18, align 8
  %20 = getelementptr inbounds i8, ptr %0, i64 40
  store i64 %19, ptr %20, align 8
  store ptr null, ptr %4, align 8
  store ptr %7, ptr %11, align 8
  store ptr %7, ptr %14, align 8
  br label %_ZNSt3mapINSt7__cxx1112basic_stringIcSt11char_traitsIcESaIcEEESt10unique_ptrIN6gmxapi17NodeSpecificationESt14default_deleteIS8_EESt4lessIS5_ESaISt4pairIKS5_SB_EEEC2EOSI_.exit

21:                                               ; preds = %2
  store i32 0, ptr %3, align 8
  %22 = getelementptr inbounds i8, ptr %0, i64 16
  store ptr null, ptr %22, align 8
  %23 = getelementptr inbounds i8, ptr %0, i64 24
  store ptr %3, ptr %23, align 8
  %24 = getelementptr inbounds i8, ptr %0, i64 32
  store ptr %3, ptr %24, align 8
  %25 = getelementptr inbounds i8, ptr %0, i64 40
  br label %_ZNSt3mapINSt7__cxx1112basic_stringIcSt11char_traitsIcESaIcEEESt10unique_ptrIN6gmxapi17NodeSpecificationESt14default_deleteIS8_EESt4lessIS5_ESaISt4pairIKS5_SB_EEEC2EOSI_.exit

_ZNSt3mapINSt7__cxx1112basic_stringIcSt11char_traitsIcESaIcEEESt10unique_ptrIN6gmxapi17NodeSpecificationESt14default_deleteIS8_EESt4lessIS5_ESaISt4pairIKS5_SB_EEEC2EOSI_.exit: ; preds = %6, %21
  %.sink.i.i.i.i = phi ptr [ %25, %21 ], [ %18, %6 ]
  store i64 0, ptr %.sink.i.i.i.i, align 8
  ret void
}